; ModuleID = '7/1284.c'
source_filename = "7/1284.c"
target datalayout = "e-m:e-p270:32:32-p271:32:32-p272:64:64-i64:64-f80:128-n8:16:32:64-S128"
target triple = "x86_64-pc-linux-gnu"

; Function Attrs: noinline nounwind uwtable
define dso_local i32 @main() #0 {
  %1 = alloca i32, align 4
  %2 = alloca i32, align 4
  %3 = alloca i32, align 4
  %4 = alloca i32, align 4
  %5 = alloca i32, align 4
  %6 = alloca i32, align 4
  %7 = alloca [256 x i8], align 16
  %8 = alloca [256 x i8], align 16
  %9 = alloca [256 x i8], align 16
  store i32 0, i32* %1, align 4
  %10 = getelementptr inbounds [256 x i8], [256 x i8]* %8, i64 0, i64 0
  %11 = call i32 (i8*, ...) bitcast (i32 (...)* @gets to i32 (i8*, ...)*)(i8* %10)
  %12 = getelementptr inbounds [256 x i8], [256 x i8]* %7, i64 0, i64 0
  %13 = call i32 (i8*, ...) bitcast (i32 (...)* @gets to i32 (i8*, ...)*)(i8* %12)
  %14 = getelementptr inbounds [256 x i8], [256 x i8]* %9, i64 0, i64 0
  %15 = call i32 (i8*, ...) bitcast (i32 (...)* @gets to i32 (i8*, ...)*)(i8* %14)
  %16 = getelementptr inbounds [256 x i8], [256 x i8]* %7, i64 0, i64 0
  %17 = call i64 @strlen(i8* %16) #3
  %18 = trunc i64 %17 to i32
  store i32 %18, i32* %2, align 4
  %19 = getelementptr inbounds [256 x i8], [256 x i8]* %8, i64 0, i64 0
  %20 = call i64 @strlen(i8* %19) #3
  %21 = trunc i64 %20 to i32
  store i32 %21, i32* %3, align 4
  store i32 0, i32* %4, align 4
  br label %22

22:                                               ; preds = %75, %0
  %23 = load i32, i32* %4, align 4
  %24 = load i32, i32* %3, align 4
  %25 = load i32, i32* %2, align 4
  %26 = sub nsw i32 %24, %25
  %27 = add nsw i32 %26, 1
  %28 = icmp slt i32 %23, %27
  br i1 %28, label %29, label %78

29:                                               ; preds = %22
  %30 = load i32, i32* %4, align 4
  %31 = sext i32 %30 to i64
  %32 = getelementptr inbounds [256 x i8], [256 x i8]* %8, i64 0, i64 %31
  %33 = load i8, i8* %32, align 1
  %34 = sext i8 %33 to i32
  %35 = getelementptr inbounds [256 x i8], [256 x i8]* %7, i64 0, i64 0
  %36 = load i8, i8* %35, align 16
  %37 = sext i8 %36 to i32
  %38 = icmp eq i32 %34, %37
  br i1 %38, label %39, label %74

39:                                               ; preds = %29
  store i32 0, i32* %6, align 4
  %40 = load i32, i32* %4, align 4
  store i32 %40, i32* %5, align 4
  br label %41

41:                                               ; preds = %65, %39
  %42 = load i32, i32* %5, align 4
  %43 = load i32, i32* %4, align 4
  %44 = load i32, i32* %2, align 4
  %45 = add nsw i32 %43, %44
  %46 = icmp slt i32 %42, %45
  br i1 %46, label %47, label %68

47:                                               ; preds = %41
  %48 = load i32, i32* %5, align 4
  %49 = sext i32 %48 to i64
  %50 = getelementptr inbounds [256 x i8], [256 x i8]* %8, i64 0, i64 %49
  %51 = load i8, i8* %50, align 1
  %52 = sext i8 %51 to i32
  %53 = load i32, i32* %5, align 4
  %54 = load i32, i32* %4, align 4
  %55 = sub nsw i32 %53, %54
  %56 = sext i32 %55 to i64
  %57 = getelementptr inbounds [256 x i8], [256 x i8]* %7, i64 0, i64 %56
  %58 = load i8, i8* %57, align 1
  %59 = sext i8 %58 to i32
  %60 = icmp eq i32 %52, %59
  br i1 %60, label %61, label %64

61:                                               ; preds = %47
  %62 = load i32, i32* %6, align 4
  %63 = add nsw i32 %62, 1
  store i32 %63, i32* %6, align 4
  br label %64

64:                                               ; preds = %61, %47
  br label %65

65:                                               ; preds = %64
  %66 = load i32, i32* %5, align 4
  %67 = add nsw i32 %66, 1
  store i32 %67, i32* %5, align 4
  br label %41

68:                                               ; preds = %41
  %69 = load i32, i32* %6, align 4
  %70 = load i32, i32* %2, align 4
  %71 = icmp eq i32 %69, %70
  br i1 %71, label %72, label %73

72:                                               ; preds = %68
  br label %78

73:                                               ; preds = %68
  br label %74

74:                                               ; preds = %73, %29
  br label %75

75:                                               ; preds = %74
  %76 = load i32, i32* %4, align 4
  %77 = add nsw i32 %76, 1
  store i32 %77, i32* %4, align 4
  br label %22

78:                                               ; preds = %72, %22
  %79 = load i32, i32* %6, align 4
  %80 = load i32, i32* %2, align 4
  %81 = icmp eq i32 %79, %80
  br i1 %81, label %82, label %104

82:                                               ; preds = %78
  %83 = load i32, i32* %4, align 4
  store i32 %83, i32* %5, align 4
  br label %84

84:                                               ; preds = %100, %82
  %85 = load i32, i32* %5, align 4
  %86 = load i32, i32* %4, align 4
  %87 = load i32, i32* %2, align 4
  %88 = add nsw i32 %86, %87
  %89 = icmp slt i32 %85, %88
  br i1 %89, label %90, label %103

90:                                               ; preds = %84
  %91 = load i32, i32* %5, align 4
  %92 = load i32, i32* %4, align 4
  %93 = sub nsw i32 %91, %92
  %94 = sext i32 %93 to i64
  %95 = getelementptr inbounds [256 x i8], [256 x i8]* %9, i64 0, i64 %94
  %96 = load i8, i8* %95, align 1
  %97 = load i32, i32* %5, align 4
  %98 = sext i32 %97 to i64
  %99 = getelementptr inbounds [256 x i8], [256 x i8]* %8, i64 0, i64 %98
  store i8 %96, i8* %99, align 1
  br label %100

100:                                              ; preds = %90
  %101 = load i32, i32* %5, align 4
  %102 = add nsw i32 %101, 1
  store i32 %102, i32* %5, align 4
  br label %84

103:                                              ; preds = %84
  br label %104

104:                                              ; preds = %103, %78
  %105 = getelementptr inbounds [256 x i8], [256 x i8]* %8, i64 0, i64 0
  %106 = call i32 @puts(i8* %105)
  ret i32 0
}

declare dso_local i32 @gets(...) #1

; Function Attrs: nounwind readonly
declare dso_local i64 @strlen(i8*) #2

declare dso_local i32 @puts(i8*) #1


!llvm.module.flags = !{!0}
!llvm.ident = !{!1}

!0 = !{i32 1, !"wchar_size", i32 4}
!1 = !{!"clang version 10.0.0-4ubuntu1 "}
